target datalayout = "e-m:e-p270:32:32-p271:32:32-p272:64:64-i64:64-i128:128-f80:128-n8:16:32:64-S128"
target triple = "x86_64-pc-linux-gnu"

%struct.dt_control_image_enumerator_t = type { ptr, i32, ptr, i32 }

@.str.53 = private unnamed_addr constant [3 x i8] c"%s\00", align 1

; Function Attrs: nounwind uwtable
define internal ptr @dt_control_image_enumerator_alloc() #0 {
  %1 = alloca ptr, align 8
  %2 = alloca ptr, align 8
  %3 = alloca i32, align 4
  call void @llvm.lifetime.start.p0(i64 8, ptr %2) #14
  %4 = call noalias ptr @calloc(i64 noundef 1, i64 noundef 32) #19
  store ptr %4, ptr %2, align 8, !tbaa !53
  %5 = load ptr, ptr %2, align 8, !tbaa !53
  %6 = icmp ne ptr %5, null
  br i1 %6, label %8, label %7

7:                                                ; preds = %0
  store ptr null, ptr %1, align 8
  store i32 1, ptr %3, align 4
  br label %10

8:                                                ; preds = %0
  %9 = load ptr, ptr %2, align 8, !tbaa !53
  store ptr %9, ptr %1, align 8
  store i32 1, ptr %3, align 4
  br label %10

10:                                               ; preds = %8, %7
  call void @llvm.lifetime.end.p0(i64 8, ptr %2) #14
  %11 = load ptr, ptr %1, align 8
  ret ptr %11
}

; Function Attrs: nounwind uwtable
define internal ptr @dt_control_generic_images_job_create(ptr noundef %0, ptr noundef %1, i32 noundef %2, ptr noundef %3, i32 noundef %4, i32 noundef %5) #0 {
  %7 = alloca ptr, align 8
  %8 = alloca ptr, align 8
  %9 = alloca ptr, align 8
  %10 = alloca i32, align 4
  %11 = alloca ptr, align 8
  %12 = alloca i32, align 4
  %13 = alloca i32, align 4
  %14 = alloca ptr, align 8
  %15 = alloca i32, align 4
  %16 = alloca ptr, align 8
  store ptr %0, ptr %8, align 8, !tbaa !6
  store ptr %1, ptr %9, align 8, !tbaa !49
  store i32 %2, ptr %10, align 4, !tbaa !50
  store ptr %3, ptr %11, align 8, !tbaa !6
  store i32 %4, ptr %12, align 4, !tbaa !50
  store i32 %5, ptr %13, align 4, !tbaa !50
  call void @llvm.lifetime.start.p0(i64 8, ptr %14) #14
  %17 = load ptr, ptr %8, align 8, !tbaa !6
  %18 = load ptr, ptr %9, align 8, !tbaa !49
  %19 = call ptr (ptr, ptr, ...) @dt_control_job_create(ptr noundef %17, ptr noundef @.str.53, ptr noundef %18)
  store ptr %19, ptr %14, align 8, !tbaa !51
  %20 = load ptr, ptr %14, align 8, !tbaa !51
  %21 = icmp ne ptr %20, null
  br i1 %21, label %23, label %22

22:                                               ; preds = %6
  store ptr null, ptr %7, align 8
  store i32 1, ptr %15, align 4
  br label %60

23:                                               ; preds = %6
  call void @llvm.lifetime.start.p0(i64 8, ptr %16) #14
  %24 = call ptr @dt_control_image_enumerator_alloc()
  store ptr %24, ptr %16, align 8, !tbaa !53
  %25 = load ptr, ptr %16, align 8, !tbaa !53
  %26 = icmp ne ptr %25, null
  br i1 %26, label %29, label %27

27:                                               ; preds = %23
  %28 = load ptr, ptr %14, align 8, !tbaa !51
  call void @dt_control_job_dispose(ptr noundef %28)
  store ptr null, ptr %7, align 8
  store i32 1, ptr %15, align 4
  br label %59

29:                                               ; preds = %23
  %30 = load i32, ptr %12, align 4, !tbaa !50
  %31 = icmp eq i32 %30, 3
  br i1 %31, label %32, label %35

32:                                               ; preds = %29
  %33 = load ptr, ptr %16, align 8, !tbaa !53
  %34 = getelementptr inbounds nuw %struct.dt_control_image_enumerator_t, ptr %33, i32 0, i32 3
  store i32 1, ptr %34, align 8, !tbaa !55
  call void (...) @dt_gui_cursor_set_busy()
  store i32 2, ptr %12, align 4, !tbaa !50
  br label %35

35:                                               ; preds = %32, %29
  %36 = load i32, ptr %12, align 4, !tbaa !50
  %37 = icmp ne i32 %36, 0
  br i1 %37, label %38, label %45

38:                                               ; preds = %35
  %39 = load ptr, ptr %14, align 8, !tbaa !51
  %40 = load ptr, ptr %9, align 8, !tbaa !49
  %41 = call ptr @dcgettext(ptr noundef null, ptr noundef %40, i32 noundef 5) #14
  %42 = load i32, ptr %12, align 4, !tbaa !50
  %43 = icmp eq i32 %42, 2
  %44 = zext i1 %43 to i32
  call void @dt_control_job_add_progress(ptr noundef %39, ptr noundef %41, i32 noundef %44)
  br label %45

45:                                               ; preds = %38, %35
  %46 = load i32, ptr %13, align 4, !tbaa !50
  %47 = call ptr @dt_act_on_get_images(i32 noundef %46, i32 noundef 1, i32 noundef 0)
  %48 = load ptr, ptr %16, align 8, !tbaa !53
  %49 = getelementptr inbounds nuw %struct.dt_control_image_enumerator_t, ptr %48, i32 0, i32 0
  store ptr %47, ptr %49, align 8, !tbaa !57
  %50 = load ptr, ptr %14, align 8, !tbaa !51
  %51 = load ptr, ptr %16, align 8, !tbaa !53
  call void @dt_control_job_set_params(ptr noundef %50, ptr noundef %51, ptr noundef @dt_control_image_enumerator_cleanup)
  %52 = load i32, ptr %10, align 4, !tbaa !50
  %53 = load ptr, ptr %16, align 8, !tbaa !53
  %54 = getelementptr inbounds nuw %struct.dt_control_image_enumerator_t, ptr %53, i32 0, i32 1
  store i32 %52, ptr %54, align 8, !tbaa !58
  %55 = load ptr, ptr %11, align 8, !tbaa !6
  %56 = load ptr, ptr %16, align 8, !tbaa !53
  %57 = getelementptr inbounds nuw %struct.dt_control_image_enumerator_t, ptr %56, i32 0, i32 2
  store ptr %55, ptr %57, align 8, !tbaa !59
  %58 = load ptr, ptr %14, align 8, !tbaa !51
  store ptr %58, ptr %7, align 8
  store i32 1, ptr %15, align 4
  br label %59

59:                                               ; preds = %45, %27
  call void @llvm.lifetime.end.p0(i64 8, ptr %16) #14
  br label %60

60:                                               ; preds = %59, %22
  call void @llvm.lifetime.end.p0(i64 8, ptr %14) #14
  %61 = load ptr, ptr %7, align 8
  ret ptr %61
}