; Function Attrs: nounwind uwtable
define internal fastcc ptr @dt_control_generic_images_job_create(ptr noundef %0, ptr noundef %1, i32 noundef %2, ptr noundef %3, i32 noundef range(i32 1, 4) %4, i32 noundef range(i32 0, 2) %5) unnamed_addr #0 {
  %7 = tail call ptr (ptr, ptr, ...) @dt_control_job_create(ptr noundef %0, ptr noundef nonnull @.str.53, ptr noundef %1) #17
  %.not = icmp eq ptr %7, null
  br i1 %.not, label %22, label %8

8:                                                ; preds = %6
  %9 = tail call noalias noundef dereferenceable_or_null(32) ptr @calloc(i64 noundef 1, i64 noundef 32) #18
  %.not24 = icmp eq ptr %9, null
  br i1 %.not24, label %10, label %11

10:                                               ; preds = %8
  tail call void @dt_control_job_dispose(ptr noundef nonnull %7) #17
  br label %22

11:                                               ; preds = %8
  %12 = icmp eq i32 %4, 3
  br i1 %12, label %13, label %15

13:                                               ; preds = %11
  %14 = getelementptr inbounds nuw i8, ptr %9, i64 24
  store i32 1, ptr %14, align 8, !tbaa !48
  tail call void (...) @dt_gui_cursor_set_busy() #17
  br label %15

15:                                               ; preds = %11, %13
  %.020 = phi i32 [ 2, %13 ], [ %4, %11 ]
  %16 = tail call ptr @dcgettext(ptr noundef null, ptr noundef %1, i32 noundef 5) #17
  %17 = icmp eq i32 %.020, 2
  %18 = zext i1 %17 to i32
  tail call void @dt_control_job_add_progress(ptr noundef nonnull %7, ptr noundef %16, i32 noundef %18) #17
  %19 = tail call ptr @dt_act_on_get_images(i32 noundef %5, i32 noundef 1, i32 noundef 0) #17
  store ptr %19, ptr %9, align 8, !tbaa !50
  tail call void @dt_control_job_set_params(ptr noundef nonnull %7, ptr noundef nonnull %9, ptr noundef nonnull @dt_control_image_enumerator_cleanup) #17
  %20 = getelementptr inbounds nuw i8, ptr %9, i64 8
  store i32 %2, ptr %20, align 8, !tbaa !51
  %21 = getelementptr inbounds nuw i8, ptr %9, i64 16
  store ptr %3, ptr %21, align 8, !tbaa !52
  br label %22

22:                                               ; preds = %10, %15, %6
  %.0 = phi ptr [ null, %6 ], [ %7, %15 ], [ null, %10 ]
  ret ptr %.0
}